(lp0
(dp1
S'temperature'
p2
S'+13'
p3
sS'month'
p4
S'march'
p5
sS'weather'
p6
S'sunny'
p7
sS'year'
p8
S'2017'
p9
sS'day'
p10
S'8'
p11
sS'wind'
p12
S'3'
p13
sa(dp14
S'temperature'
p15
S'+20'
p16
sS'month'
p17
S'may'
p18
sS'weather'
p19
S'sunny'
p20
sS'year'
p21
S'2013'
p22
sS'day'
p23
S'13'
p24
sS'wind'
p25
S'4'
p26
sa(dp27
S'temperature'
p28
S'+23'
p29
sS'month'
p30
S'march'
p31
sS'weather'
p32
S'sunny'
p33
sS'year'
p34
S'2017'
p35
sS'day'
p36
S'13'
p37
sS'wind'
p38
S'4'
p39
sa.